; Function Attrs: nounwind uwtable
define ptr @l_Lake_Toml_recNodeWithAntiquot_go(ptr noundef %0, ptr noundef %1, ptr noundef %2, i8 noundef zeroext %3, ptr noundef %4) local_unnamed_addr #1 {
  %6 = ptrtoint ptr %1 to i64
  %7 = and i64 %6, 1
  %.not = icmp eq i64 %7, 0
  br i1 %.not, label %8, label %lean_inc.exit

8:                                                ; preds = %5
  %.val.i = load i32, ptr %1, align 4, !tbaa !4
  %9 = icmp sgt i32 %.val.i, 0
  br i1 %9, label %10, label %12, !prof !9

10:                                               ; preds = %8
  %11 = add nuw i32 %.val.i, 1
  store i32 %11, ptr %1, align 4, !tbaa !4
  br label %lean_inc.exit

12:                                               ; preds = %8
  %.not.i = icmp eq i32 %.val.i, 0
  br i1 %.not.i, label %lean_inc.exit, label %13

13:                                               ; preds = %12
  tail call void @lean_inc_ref_cold(ptr noundef nonnull %1) #4
  br label %lean_inc.exit

lean_inc.exit:                                    ; preds = %13, %12, %10, %5
  %14 = tail call ptr @l_Lean_Parser_mkAntiquot(ptr noundef %0, ptr noundef %1, i8 noundef zeroext %3, i8 noundef zeroext 1) #4
  %15 = tail call ptr @lean_apply_1(ptr noundef %2, ptr noundef %4) #4
  %16 = tail call ptr @l_Lean_Parser_withAntiquot(ptr noundef %14, ptr noundef %15) #4
  %17 = tail call ptr @l_Lean_Parser_withCache(ptr noundef %1, ptr noundef %16) #4
  ret ptr %17
}